
Task 7 SPI _ MASTER.elf:     file format elf32-avr

Sections:
Idx Name          Size      VMA       LMA       File off  Algn
  0 .text         00000314  00000000  00000000  00000074  2**1
                  CONTENTS, ALLOC, LOAD, READONLY, CODE
  1 .data         00000008  00800060  00000314  00000388  2**0
                  CONTENTS, ALLOC, LOAD, DATA
  2 .comment      00000030  00000000  00000000  00000390  2**0
                  CONTENTS, READONLY
  3 .note.gnu.avr.deviceinfo 0000003c  00000000  00000000  000003c0  2**2
                  CONTENTS, READONLY
  4 .debug_aranges 00000108  00000000  00000000  000003fc  2**0
                  CONTENTS, READONLY, DEBUGGING
  5 .debug_info   00000de9  00000000  00000000  00000504  2**0
                  CONTENTS, READONLY, DEBUGGING
  6 .debug_abbrev 00000914  00000000  00000000  000012ed  2**0
                  CONTENTS, READONLY, DEBUGGING
  7 .debug_line   00000880  00000000  00000000  00001c01  2**0
                  CONTENTS, READONLY, DEBUGGING
  8 .debug_frame  000001ec  00000000  00000000  00002484  2**2
                  CONTENTS, READONLY, DEBUGGING
  9 .debug_str    00000573  00000000  00000000  00002670  2**0
                  CONTENTS, READONLY, DEBUGGING
 10 .debug_loc    00000674  00000000  00000000  00002be3  2**0
                  CONTENTS, READONLY, DEBUGGING
 11 .debug_ranges 000000b8  00000000  00000000  00003257  2**0
                  CONTENTS, READONLY, DEBUGGING

Disassembly of section .text:

00000000 <__vectors>:
   0:	0c 94 2a 00 	jmp	0x54	; 0x54 <__ctors_end>
   4:	0c 94 3f 00 	jmp	0x7e	; 0x7e <__bad_interrupt>
   8:	0c 94 3f 00 	jmp	0x7e	; 0x7e <__bad_interrupt>
   c:	0c 94 3f 00 	jmp	0x7e	; 0x7e <__bad_interrupt>
  10:	0c 94 3f 00 	jmp	0x7e	; 0x7e <__bad_interrupt>
  14:	0c 94 3f 00 	jmp	0x7e	; 0x7e <__bad_interrupt>
  18:	0c 94 3f 00 	jmp	0x7e	; 0x7e <__bad_interrupt>
  1c:	0c 94 3f 00 	jmp	0x7e	; 0x7e <__bad_interrupt>
  20:	0c 94 3f 00 	jmp	0x7e	; 0x7e <__bad_interrupt>
  24:	0c 94 3f 00 	jmp	0x7e	; 0x7e <__bad_interrupt>
  28:	0c 94 3f 00 	jmp	0x7e	; 0x7e <__bad_interrupt>
  2c:	0c 94 3f 00 	jmp	0x7e	; 0x7e <__bad_interrupt>
  30:	0c 94 3f 00 	jmp	0x7e	; 0x7e <__bad_interrupt>
  34:	0c 94 3f 00 	jmp	0x7e	; 0x7e <__bad_interrupt>
  38:	0c 94 3f 00 	jmp	0x7e	; 0x7e <__bad_interrupt>
  3c:	0c 94 3f 00 	jmp	0x7e	; 0x7e <__bad_interrupt>
  40:	0c 94 3f 00 	jmp	0x7e	; 0x7e <__bad_interrupt>
  44:	0c 94 3f 00 	jmp	0x7e	; 0x7e <__bad_interrupt>
  48:	0c 94 3f 00 	jmp	0x7e	; 0x7e <__bad_interrupt>
  4c:	0c 94 3f 00 	jmp	0x7e	; 0x7e <__bad_interrupt>
  50:	0c 94 3f 00 	jmp	0x7e	; 0x7e <__bad_interrupt>

00000054 <__ctors_end>:
  54:	11 24       	eor	r1, r1
  56:	1f be       	out	0x3f, r1	; 63
  58:	cf e5       	ldi	r28, 0x5F	; 95
  5a:	d8 e0       	ldi	r29, 0x08	; 8
  5c:	de bf       	out	0x3e, r29	; 62
  5e:	cd bf       	out	0x3d, r28	; 61

00000060 <__do_copy_data>:
  60:	10 e0       	ldi	r17, 0x00	; 0
  62:	a0 e6       	ldi	r26, 0x60	; 96
  64:	b0 e0       	ldi	r27, 0x00	; 0
  66:	e4 e1       	ldi	r30, 0x14	; 20
  68:	f3 e0       	ldi	r31, 0x03	; 3
  6a:	02 c0       	rjmp	.+4      	; 0x70 <__do_copy_data+0x10>
  6c:	05 90       	lpm	r0, Z+
  6e:	0d 92       	st	X+, r0
  70:	a8 36       	cpi	r26, 0x68	; 104
  72:	b1 07       	cpc	r27, r17
  74:	d9 f7       	brne	.-10     	; 0x6c <__do_copy_data+0xc>
  76:	0e 94 bd 00 	call	0x17a	; 0x17a <main>
  7a:	0c 94 88 01 	jmp	0x310	; 0x310 <_exit>

0000007e <__bad_interrupt>:
  7e:	0c 94 00 00 	jmp	0	; 0x0 <__vectors>

00000082 <app_init>:
#include "app.h"
void app_init()
{
	
	/* Initialize the SPI driver as Master */
	SPI_initMaster();
  82:	0e 94 da 00 	call	0x1b4	; 0x1b4 <SPI_initMaster>
	/* Baud Rate = 9600 */
	USART_Init(BAUD_RATE);
  86:	60 e8       	ldi	r22, 0x80	; 128
  88:	75 e2       	ldi	r23, 0x25	; 37
  8a:	80 e0       	ldi	r24, 0x00	; 0
  8c:	90 e0       	ldi	r25, 0x00	; 0
  8e:	0e 94 0c 01 	call	0x218	; 0x218 <USART_Init>
  92:	08 95       	ret

00000094 <DIO_setupPinDirection>:
	/*
	 * Check if the input port number is greater than NUM_OF_PINS_PER_PORT value.
	 * Or if the input pin number is greater than NUM_OF_PINS_PER_PORT value.
	 * In this case the input is not valid port/pin number
	 */
	if((pin_num >= NUM_OF_PINS_PER_PORT) || (port_num >= NUM_OF_PORTS))
  94:	68 30       	cpi	r22, 0x08	; 8
  96:	08 f0       	brcs	.+2      	; 0x9a <DIO_setupPinDirection+0x6>
  98:	6f c0       	rjmp	.+222    	; 0x178 <DIO_setupPinDirection+0xe4>
  9a:	84 30       	cpi	r24, 0x04	; 4
  9c:	08 f0       	brcs	.+2      	; 0xa0 <DIO_setupPinDirection+0xc>
  9e:	6c c0       	rjmp	.+216    	; 0x178 <DIO_setupPinDirection+0xe4>
		/* Do Nothing */
	}
	else
	{
		/* Setup the pin direction as required */
		switch(port_num)
  a0:	81 30       	cpi	r24, 0x01	; 1
  a2:	01 f1       	breq	.+64     	; 0xe4 <DIO_setupPinDirection+0x50>
  a4:	30 f0       	brcs	.+12     	; 0xb2 <DIO_setupPinDirection+0x1e>
  a6:	82 30       	cpi	r24, 0x02	; 2
  a8:	b1 f1       	breq	.+108    	; 0x116 <DIO_setupPinDirection+0x82>
  aa:	83 30       	cpi	r24, 0x03	; 3
  ac:	09 f4       	brne	.+2      	; 0xb0 <DIO_setupPinDirection+0x1c>
  ae:	4c c0       	rjmp	.+152    	; 0x148 <DIO_setupPinDirection+0xb4>
  b0:	08 95       	ret
		{
		case PORTA_ID:
			if(direction == PIN_OUTPUT)
  b2:	41 30       	cpi	r20, 0x01	; 1
  b4:	59 f4       	brne	.+22     	; 0xcc <DIO_setupPinDirection+0x38>
			{
				SET_BIT(DDRA,pin_num);
  b6:	2a b3       	in	r18, 0x1a	; 26
  b8:	81 e0       	ldi	r24, 0x01	; 1
  ba:	90 e0       	ldi	r25, 0x00	; 0
  bc:	02 c0       	rjmp	.+4      	; 0xc2 <DIO_setupPinDirection+0x2e>
  be:	88 0f       	add	r24, r24
  c0:	99 1f       	adc	r25, r25
  c2:	6a 95       	dec	r22
  c4:	e2 f7       	brpl	.-8      	; 0xbe <DIO_setupPinDirection+0x2a>
  c6:	82 2b       	or	r24, r18
  c8:	8a bb       	out	0x1a, r24	; 26
  ca:	08 95       	ret
			}
			else
			{
				CLEAR_BIT(DDRA,pin_num);
  cc:	2a b3       	in	r18, 0x1a	; 26
  ce:	81 e0       	ldi	r24, 0x01	; 1
  d0:	90 e0       	ldi	r25, 0x00	; 0
  d2:	02 c0       	rjmp	.+4      	; 0xd8 <DIO_setupPinDirection+0x44>
  d4:	88 0f       	add	r24, r24
  d6:	99 1f       	adc	r25, r25
  d8:	6a 95       	dec	r22
  da:	e2 f7       	brpl	.-8      	; 0xd4 <DIO_setupPinDirection+0x40>
  dc:	80 95       	com	r24
  de:	82 23       	and	r24, r18
  e0:	8a bb       	out	0x1a, r24	; 26
  e2:	08 95       	ret
			}
			break;
		case PORTB_ID:
			if(direction == PIN_OUTPUT)
  e4:	41 30       	cpi	r20, 0x01	; 1
  e6:	59 f4       	brne	.+22     	; 0xfe <DIO_setupPinDirection+0x6a>
			{
				SET_BIT(DDRB,pin_num);
  e8:	27 b3       	in	r18, 0x17	; 23
  ea:	81 e0       	ldi	r24, 0x01	; 1
  ec:	90 e0       	ldi	r25, 0x00	; 0
  ee:	02 c0       	rjmp	.+4      	; 0xf4 <DIO_setupPinDirection+0x60>
  f0:	88 0f       	add	r24, r24
  f2:	99 1f       	adc	r25, r25
  f4:	6a 95       	dec	r22
  f6:	e2 f7       	brpl	.-8      	; 0xf0 <DIO_setupPinDirection+0x5c>
  f8:	82 2b       	or	r24, r18
  fa:	87 bb       	out	0x17, r24	; 23
  fc:	08 95       	ret
			}
			else
			{
				CLEAR_BIT(DDRB,pin_num);
  fe:	27 b3       	in	r18, 0x17	; 23
 100:	81 e0       	ldi	r24, 0x01	; 1
 102:	90 e0       	ldi	r25, 0x00	; 0
 104:	02 c0       	rjmp	.+4      	; 0x10a <DIO_setupPinDirection+0x76>
 106:	88 0f       	add	r24, r24
 108:	99 1f       	adc	r25, r25
 10a:	6a 95       	dec	r22
 10c:	e2 f7       	brpl	.-8      	; 0x106 <DIO_setupPinDirection+0x72>
 10e:	80 95       	com	r24
 110:	82 23       	and	r24, r18
 112:	87 bb       	out	0x17, r24	; 23
 114:	08 95       	ret
			}
			break;
		case PORTC_ID:
			if(direction == PIN_OUTPUT)
 116:	41 30       	cpi	r20, 0x01	; 1
 118:	59 f4       	brne	.+22     	; 0x130 <DIO_setupPinDirection+0x9c>
			{
				SET_BIT(DDRC,pin_num);
 11a:	24 b3       	in	r18, 0x14	; 20
 11c:	81 e0       	ldi	r24, 0x01	; 1
 11e:	90 e0       	ldi	r25, 0x00	; 0
 120:	02 c0       	rjmp	.+4      	; 0x126 <DIO_setupPinDirection+0x92>
 122:	88 0f       	add	r24, r24
 124:	99 1f       	adc	r25, r25
 126:	6a 95       	dec	r22
 128:	e2 f7       	brpl	.-8      	; 0x122 <DIO_setupPinDirection+0x8e>
 12a:	82 2b       	or	r24, r18
 12c:	84 bb       	out	0x14, r24	; 20
 12e:	08 95       	ret
			}
			else
			{
				CLEAR_BIT(DDRC,pin_num);
 130:	24 b3       	in	r18, 0x14	; 20
 132:	81 e0       	ldi	r24, 0x01	; 1
 134:	90 e0       	ldi	r25, 0x00	; 0
 136:	02 c0       	rjmp	.+4      	; 0x13c <DIO_setupPinDirection+0xa8>
 138:	88 0f       	add	r24, r24
 13a:	99 1f       	adc	r25, r25
 13c:	6a 95       	dec	r22
 13e:	e2 f7       	brpl	.-8      	; 0x138 <DIO_setupPinDirection+0xa4>
 140:	80 95       	com	r24
 142:	82 23       	and	r24, r18
 144:	84 bb       	out	0x14, r24	; 20
 146:	08 95       	ret
			}
			break;
		case PORTD_ID:
			if(direction == PIN_OUTPUT)
 148:	41 30       	cpi	r20, 0x01	; 1
 14a:	59 f4       	brne	.+22     	; 0x162 <DIO_setupPinDirection+0xce>
			{
				SET_BIT(DDRD,pin_num);
 14c:	21 b3       	in	r18, 0x11	; 17
 14e:	81 e0       	ldi	r24, 0x01	; 1
 150:	90 e0       	ldi	r25, 0x00	; 0
 152:	02 c0       	rjmp	.+4      	; 0x158 <DIO_setupPinDirection+0xc4>
 154:	88 0f       	add	r24, r24
 156:	99 1f       	adc	r25, r25
 158:	6a 95       	dec	r22
 15a:	e2 f7       	brpl	.-8      	; 0x154 <DIO_setupPinDirection+0xc0>
 15c:	82 2b       	or	r24, r18
 15e:	81 bb       	out	0x11, r24	; 17
 160:	08 95       	ret
			}
			else
			{
				CLEAR_BIT(DDRD,pin_num);
 162:	21 b3       	in	r18, 0x11	; 17
 164:	81 e0       	ldi	r24, 0x01	; 1
 166:	90 e0       	ldi	r25, 0x00	; 0
 168:	02 c0       	rjmp	.+4      	; 0x16e <DIO_setupPinDirection+0xda>
 16a:	88 0f       	add	r24, r24
 16c:	99 1f       	adc	r25, r25
 16e:	6a 95       	dec	r22
 170:	e2 f7       	brpl	.-8      	; 0x16a <DIO_setupPinDirection+0xd6>
 172:	80 95       	com	r24
 174:	82 23       	and	r24, r18
 176:	81 bb       	out	0x11, r24	; 17
 178:	08 95       	ret

0000017a <main>:
 *  Author: OWNER
 */ 
#include "app.h"
#define MAX_SIZE 255
int main(void)
{
 17a:	cf 93       	push	r28
 17c:	df 93       	push	r29
 17e:	cd b7       	in	r28, 0x3d	; 61
 180:	de b7       	in	r29, 0x3e	; 62
 182:	cf 5f       	subi	r28, 0xFF	; 255
 184:	d1 09       	sbc	r29, r1
 186:	0f b6       	in	r0, 0x3f	; 63
 188:	f8 94       	cli
 18a:	de bf       	out	0x3e, r29	; 62
 18c:	0f be       	out	0x3f, r0	; 63
 18e:	cd bf       	out	0x3d, r28	; 61
	app_init();
 190:	0e 94 41 00 	call	0x82	; 0x82 <app_init>
	USART_SendString((uint8*)"MASTER\r");
 194:	80 e6       	ldi	r24, 0x60	; 96
 196:	90 e0       	ldi	r25, 0x00	; 0
 198:	0e 94 38 01 	call	0x270	; 0x270 <USART_SendString>
	/* Send the string to MC2 */
	uint8 message[MAX_SIZE];

    while(1)
    {
		USART_ReceiveString(message);
 19c:	ce 01       	movw	r24, r28
 19e:	01 96       	adiw	r24, 0x01	; 1
 1a0:	0e 94 45 01 	call	0x28a	; 0x28a <USART_ReceiveString>
		
		SPI_sendString(message);
 1a4:	ce 01       	movw	r24, r28
 1a6:	01 96       	adiw	r24, 0x01	; 1
 1a8:	0e 94 f9 00 	call	0x1f2	; 0x1f2 <SPI_sendString>
		SPI_sendReceiveByte('\r');
 1ac:	8d e0       	ldi	r24, 0x0D	; 13
 1ae:	0e 94 f4 00 	call	0x1e8	; 0x1e8 <SPI_sendReceiveByte>
 1b2:	f4 cf       	rjmp	.-24     	; 0x19c <main+0x22>

000001b4 <SPI_initMaster>:
	 * SPR1:0  = 00 Choose SPI clock = Fosc/4
	 ***********************************************************************/
	SPCR = (1<<SPE);

	/* Clear the SPI2X bit in SPSR to Choose SPI clock = Fosc/4 */
	SPSR &= ~(1<<SPI2X);
 1b4:	41 e0       	ldi	r20, 0x01	; 1
 1b6:	64 e0       	ldi	r22, 0x04	; 4
 1b8:	81 e0       	ldi	r24, 0x01	; 1
 1ba:	0e 94 4a 00 	call	0x94	; 0x94 <DIO_setupPinDirection>
 1be:	41 e0       	ldi	r20, 0x01	; 1
 1c0:	65 e0       	ldi	r22, 0x05	; 5
 1c2:	81 e0       	ldi	r24, 0x01	; 1
 1c4:	0e 94 4a 00 	call	0x94	; 0x94 <DIO_setupPinDirection>
 1c8:	40 e0       	ldi	r20, 0x00	; 0
 1ca:	66 e0       	ldi	r22, 0x06	; 6
 1cc:	81 e0       	ldi	r24, 0x01	; 1
 1ce:	0e 94 4a 00 	call	0x94	; 0x94 <DIO_setupPinDirection>
 1d2:	41 e0       	ldi	r20, 0x01	; 1
 1d4:	67 e0       	ldi	r22, 0x07	; 7
 1d6:	81 e0       	ldi	r24, 0x01	; 1
 1d8:	0e 94 4a 00 	call	0x94	; 0x94 <DIO_setupPinDirection>
 1dc:	80 e5       	ldi	r24, 0x50	; 80
 1de:	8d b9       	out	0x0d, r24	; 13
 1e0:	8e b1       	in	r24, 0x0e	; 14
 1e2:	8e 7f       	andi	r24, 0xFE	; 254
 1e4:	8e b9       	out	0x0e, r24	; 14
 1e6:	08 95       	ret

000001e8 <SPI_sendReceiveByte>:
 * In the same time data will be received from the other device
 */
uint8 SPI_sendReceiveByte(uint8 data)
{
	/* Initiate the communication and send data by SPI */
	SPDR = data;
 1e8:	8f b9       	out	0x0f, r24	; 15

	/* Wait until SPI interrupt flag SPIF = 1 (data has been sent/received correctly) */
	while(BIT_IS_CLEAR(SPSR,SPIF));
 1ea:	77 9b       	sbis	0x0e, 7	; 14
 1ec:	fe cf       	rjmp	.-4      	; 0x1ea <SPI_sendReceiveByte+0x2>

	/*
	 * Note: SPIF flag is cleared by first reading SPSR (with SPIF set) which is done in the previous step.
	 * and then accessing SPDR like the below line.
	 */
	return SPDR;
 1ee:	8f b1       	in	r24, 0x0f	; 15
}
 1f0:	08 95       	ret

000001f2 <SPI_sendString>:

/*
 * Description : Send the required string through SPI to the other SPI device
 */
void SPI_sendString(const uint8 *str)
{
 1f2:	0f 93       	push	r16
 1f4:	1f 93       	push	r17
 1f6:	cf 93       	push	r28
 1f8:	8c 01       	movw	r16, r24
	uint8 i = 0;
 1fa:	c0 e0       	ldi	r28, 0x00	; 0
	uint8 received_data = 0;

	/* Send the whole string */
	while(str[i] != '\0')
 1fc:	03 c0       	rjmp	.+6      	; 0x204 <SPI_sendString+0x12>
	{
		/*
		 * received_data contains the received data from the other device.
		 * It is a dummy data variable as we just need to send the string to other device.
		 */
		received_data = SPI_sendReceiveByte(str[i]);
 1fe:	0e 94 f4 00 	call	0x1e8	; 0x1e8 <SPI_sendReceiveByte>
		i++;
 202:	cf 5f       	subi	r28, 0xFF	; 255
{
	uint8 i = 0;
	uint8 received_data = 0;

	/* Send the whole string */
	while(str[i] != '\0')
 204:	f8 01       	movw	r30, r16
 206:	ec 0f       	add	r30, r28
 208:	f1 1d       	adc	r31, r1
 20a:	80 81       	ld	r24, Z
 20c:	81 11       	cpse	r24, r1
 20e:	f7 cf       	rjmp	.-18     	; 0x1fe <SPI_sendString+0xc>
		 * It is a dummy data variable as we just need to send the string to other device.
		 */
		received_data = SPI_sendReceiveByte(str[i]);
		i++;
	}
}
 210:	cf 91       	pop	r28
 212:	1f 91       	pop	r17
 214:	0f 91       	pop	r16
 216:	08 95       	ret

00000218 <USART_Init>:
 218:	2b b1       	in	r18, 0x0b	; 11
 21a:	22 60       	ori	r18, 0x02	; 2
 21c:	2b b9       	out	0x0b, r18	; 11
 21e:	2a b1       	in	r18, 0x0a	; 10
 220:	28 61       	ori	r18, 0x18	; 24
 222:	2a b9       	out	0x0a, r18	; 10
 224:	20 b5       	in	r18, 0x20	; 32
 226:	26 68       	ori	r18, 0x86	; 134
 228:	20 bd       	out	0x20, r18	; 32
 22a:	dc 01       	movw	r26, r24
 22c:	cb 01       	movw	r24, r22
 22e:	88 0f       	add	r24, r24
 230:	99 1f       	adc	r25, r25
 232:	aa 1f       	adc	r26, r26
 234:	bb 1f       	adc	r27, r27
 236:	88 0f       	add	r24, r24
 238:	99 1f       	adc	r25, r25
 23a:	aa 1f       	adc	r26, r26
 23c:	bb 1f       	adc	r27, r27
 23e:	9c 01       	movw	r18, r24
 240:	ad 01       	movw	r20, r26
 242:	22 0f       	add	r18, r18
 244:	33 1f       	adc	r19, r19
 246:	44 1f       	adc	r20, r20
 248:	55 1f       	adc	r21, r21
 24a:	60 e4       	ldi	r22, 0x40	; 64
 24c:	72 e4       	ldi	r23, 0x42	; 66
 24e:	8f e0       	ldi	r24, 0x0F	; 15
 250:	90 e0       	ldi	r25, 0x00	; 0
 252:	0e 94 66 01 	call	0x2cc	; 0x2cc <__udivmodsi4>
 256:	21 50       	subi	r18, 0x01	; 1
 258:	31 09       	sbc	r19, r1
 25a:	30 bd       	out	0x20, r19	; 32
 25c:	29 b9       	out	0x09, r18	; 9
 25e:	08 95       	ret

00000260 <USART_SendByte>:
 260:	5d 9b       	sbis	0x0b, 5	; 11
 262:	fe cf       	rjmp	.-4      	; 0x260 <USART_SendByte>
 264:	8c b9       	out	0x0c, r24	; 12
 266:	08 95       	ret

00000268 <USART_ReceiveByte>:
 268:	5f 9b       	sbis	0x0b, 7	; 11
 26a:	fe cf       	rjmp	.-4      	; 0x268 <USART_ReceiveByte>
 26c:	8c b1       	in	r24, 0x0c	; 12
 26e:	08 95       	ret

00000270 <USART_SendString>:
 270:	cf 93       	push	r28
 272:	df 93       	push	r29
 274:	ec 01       	movw	r28, r24
 276:	03 c0       	rjmp	.+6      	; 0x27e <USART_SendString+0xe>
 278:	0e 94 30 01 	call	0x260	; 0x260 <USART_SendByte>
 27c:	21 96       	adiw	r28, 0x01	; 1
 27e:	88 81       	ld	r24, Y
 280:	81 11       	cpse	r24, r1
 282:	fa cf       	rjmp	.-12     	; 0x278 <USART_SendString+0x8>
 284:	df 91       	pop	r29
 286:	cf 91       	pop	r28
 288:	08 95       	ret

0000028a <USART_ReceiveString>:
 28a:	ef 92       	push	r14
 28c:	ff 92       	push	r15
 28e:	0f 93       	push	r16
 290:	1f 93       	push	r17
 292:	cf 93       	push	r28
 294:	8c 01       	movw	r16, r24
 296:	0e 94 34 01 	call	0x268	; 0x268 <USART_ReceiveByte>
 29a:	f8 01       	movw	r30, r16
 29c:	80 83       	st	Z, r24
 29e:	c0 e0       	ldi	r28, 0x00	; 0
 2a0:	08 c0       	rjmp	.+16     	; 0x2b2 <USART_ReceiveString+0x28>
 2a2:	cf 5f       	subi	r28, 0xFF	; 255
 2a4:	78 01       	movw	r14, r16
 2a6:	ec 0e       	add	r14, r28
 2a8:	f1 1c       	adc	r15, r1
 2aa:	0e 94 34 01 	call	0x268	; 0x268 <USART_ReceiveByte>
 2ae:	f7 01       	movw	r30, r14
 2b0:	80 83       	st	Z, r24
 2b2:	f8 01       	movw	r30, r16
 2b4:	ec 0f       	add	r30, r28
 2b6:	f1 1d       	adc	r31, r1
 2b8:	80 81       	ld	r24, Z
 2ba:	8d 30       	cpi	r24, 0x0D	; 13
 2bc:	91 f7       	brne	.-28     	; 0x2a2 <USART_ReceiveString+0x18>
 2be:	10 82       	st	Z, r1
 2c0:	cf 91       	pop	r28
 2c2:	1f 91       	pop	r17
 2c4:	0f 91       	pop	r16
 2c6:	ff 90       	pop	r15
 2c8:	ef 90       	pop	r14
 2ca:	08 95       	ret

000002cc <__udivmodsi4>:
 2cc:	a1 e2       	ldi	r26, 0x21	; 33
 2ce:	1a 2e       	mov	r1, r26
 2d0:	aa 1b       	sub	r26, r26
 2d2:	bb 1b       	sub	r27, r27
 2d4:	fd 01       	movw	r30, r26
 2d6:	0d c0       	rjmp	.+26     	; 0x2f2 <__udivmodsi4_ep>

000002d8 <__udivmodsi4_loop>:
 2d8:	aa 1f       	adc	r26, r26
 2da:	bb 1f       	adc	r27, r27
 2dc:	ee 1f       	adc	r30, r30
 2de:	ff 1f       	adc	r31, r31
 2e0:	a2 17       	cp	r26, r18
 2e2:	b3 07       	cpc	r27, r19
 2e4:	e4 07       	cpc	r30, r20
 2e6:	f5 07       	cpc	r31, r21
 2e8:	20 f0       	brcs	.+8      	; 0x2f2 <__udivmodsi4_ep>
 2ea:	a2 1b       	sub	r26, r18
 2ec:	b3 0b       	sbc	r27, r19
 2ee:	e4 0b       	sbc	r30, r20
 2f0:	f5 0b       	sbc	r31, r21

000002f2 <__udivmodsi4_ep>:
 2f2:	66 1f       	adc	r22, r22
 2f4:	77 1f       	adc	r23, r23
 2f6:	88 1f       	adc	r24, r24
 2f8:	99 1f       	adc	r25, r25
 2fa:	1a 94       	dec	r1
 2fc:	69 f7       	brne	.-38     	; 0x2d8 <__udivmodsi4_loop>
 2fe:	60 95       	com	r22
 300:	70 95       	com	r23
 302:	80 95       	com	r24
 304:	90 95       	com	r25
 306:	9b 01       	movw	r18, r22
 308:	ac 01       	movw	r20, r24
 30a:	bd 01       	movw	r22, r26
 30c:	cf 01       	movw	r24, r30
 30e:	08 95       	ret

00000310 <_exit>:
 310:	f8 94       	cli

00000312 <__stop_program>:
 312:	ff cf       	rjmp	.-2      	; 0x312 <__stop_program>
